; Function Attrs: mustprogress uwtable
define internal void @_ZNK19OpenColorIO_v2_4dev12_GLOBAL__N_115LocalFileFormat13getFormatInfoERSt6vectorINS_10FormatInfoESaIS3_EE(ptr nocapture nonnull readnone align 8 %this, ptr noundef nonnull align 8 dereferenceable(24) %formatInfoVec) unnamed_addr #4 align 2 personality ptr @__gxx_personality_v0 {
entry:
  %info = alloca %"struct.OpenColorIO_v2_4dev::FormatInfo", align 8
  call void @_ZNSt7__cxx1112basic_stringIcSt11char_traitsIcESaIcEEC1Ev(ptr noundef nonnull align 8 dereferenceable(32) %info) #15
  %extension.i = getelementptr inbounds i8, ptr %info, i64 32
  call void @_ZNSt7__cxx1112basic_stringIcSt11char_traitsIcESaIcEEC1Ev(ptr noundef nonnull align 8 dereferenceable(32) %extension.i) #15
  %capabilities.i = getelementptr inbounds i8, ptr %info, i64 64
  store i32 0, ptr %capabilities.i, align 8
  %bake_capabilities.i = getelementptr inbounds i8, ptr %info, i64 68
  store i32 0, ptr %bake_capabilities.i, align 4
  %call = invoke noundef nonnull align 8 dereferenceable(32) ptr @_ZNSt7__cxx1112basic_stringIcSt11char_traitsIcESaIcEEaSEPKc(ptr noundef nonnull align 8 dereferenceable(32) %info, ptr noundef nonnull @_ZN19OpenColorIO_v2_4devL30FILEFORMAT_COLOR_DECISION_LISTE)
          to label %invoke.cont unwind label %lpad

invoke.cont:                                      ; preds = %entry
  %call3 = invoke noundef nonnull align 8 dereferenceable(32) ptr @_ZNSt7__cxx1112basic_stringIcSt11char_traitsIcESaIcEEaSEPKc(ptr noundef nonnull align 8 dereferenceable(32) %extension.i, ptr noundef nonnull @.str.2)
          to label %invoke.cont2 unwind label %lpad

invoke.cont2:                                     ; preds = %invoke.cont
  store i32 5, ptr %capabilities.i, align 8
  %_M_finish.i = getelementptr inbounds i8, ptr %formatInfoVec, i64 8
  %0 = load ptr, ptr %_M_finish.i, align 8
  %_M_end_of_storage.i = getelementptr inbounds i8, ptr %formatInfoVec, i64 16
  %1 = load ptr, ptr %_M_end_of_storage.i, align 8
  %cmp.not.i = icmp eq ptr %0, %1
  br i1 %cmp.not.i, label %if.else.i, label %if.then.i

if.then.i:                                        ; preds = %invoke.cont2
  invoke void @_ZNSt7__cxx1112basic_stringIcSt11char_traitsIcESaIcEEC1ERKS4_(ptr noundef nonnull align 8 dereferenceable(32) %0, ptr noundef nonnull align 8 dereferenceable(32) %info)
          to label %.noexc unwind label %lpad

.noexc:                                           ; preds = %if.then.i
  %extension.i.i.i.i = getelementptr inbounds i8, ptr %0, i64 32
  invoke void @_ZNSt7__cxx1112basic_stringIcSt11char_traitsIcESaIcEEC1ERKS4_(ptr noundef nonnull align 8 dereferenceable(32) %extension.i.i.i.i, ptr noundef nonnull align 8 dereferenceable(32) %extension.i)
          to label %_ZNSt16allocator_traitsISaIN19OpenColorIO_v2_4dev10FormatInfoEEE9constructIS1_JRKS1_EEEvRS2_PT_DpOT0_.exit.i unwind label %lpad.i.i.i.i

lpad.i.i.i.i:                                     ; preds = %.noexc
  %2 = landingpad { ptr, i32 }
          cleanup
  call void @_ZNSt7__cxx1112basic_stringIcSt11char_traitsIcESaIcEED1Ev(ptr noundef nonnull align 8 dereferenceable(32) %0) #15
  br label %lpad.body

_ZNSt16allocator_traitsISaIN19OpenColorIO_v2_4dev10FormatInfoEEE9constructIS1_JRKS1_EEEvRS2_PT_DpOT0_.exit.i: ; preds = %.noexc
  %capabilities.i.i.i.i = getelementptr inbounds i8, ptr %0, i64 64
  %3 = load i64, ptr %capabilities.i, align 8
  store i64 %3, ptr %capabilities.i.i.i.i, align 8
  %4 = load ptr, ptr %_M_finish.i, align 8
  %incdec.ptr.i = getelementptr inbounds i8, ptr %4, i64 72
  store ptr %incdec.ptr.i, ptr %_M_finish.i, align 8
  br label %invoke.cont4

if.else.i:                                        ; preds = %invoke.cont2
  invoke void @_ZNSt6vectorIN19OpenColorIO_v2_4dev10FormatInfoESaIS1_EE17_M_realloc_insertIJRKS1_EEEvN9__gnu_cxx17__normal_iteratorIPS1_S3_EEDpOT_(ptr noundef nonnull align 8 dereferenceable(24) %formatInfoVec, ptr %0, ptr noundef nonnull align 8 dereferenceable(72) %info)
          to label %invoke.cont4 unwind label %lpad

invoke.cont4:                                     ; preds = %_ZNSt16allocator_traitsISaIN19OpenColorIO_v2_4dev10FormatInfoEEE9constructIS1_JRKS1_EEEvRS2_PT_DpOT0_.exit.i, %if.else.i
  call void @_ZNSt7__cxx1112basic_stringIcSt11char_traitsIcESaIcEED1Ev(ptr noundef nonnull align 8 dereferenceable(32) %extension.i) #15
  call void @_ZNSt7__cxx1112basic_stringIcSt11char_traitsIcESaIcEED1Ev(ptr noundef nonnull align 8 dereferenceable(32) %info) #15
  ret void

lpad:                                             ; preds = %if.else.i, %if.then.i, %invoke.cont, %entry
  %5 = landingpad { ptr, i32 }
          cleanup
  br label %lpad.body

lpad.body:                                        ; preds = %lpad.i.i.i.i, %lpad
  %eh.lpad-body = phi { ptr, i32 } [ %5, %lpad ], [ %2, %lpad.i.i.i.i ]
  call void @_ZNSt7__cxx1112basic_stringIcSt11char_traitsIcESaIcEED1Ev(ptr noundef nonnull align 8 dereferenceable(32) %extension.i) #15
  call void @_ZNSt7__cxx1112basic_stringIcSt11char_traitsIcESaIcEED1Ev(ptr noundef nonnull align 8 dereferenceable(32) %info) #15
  resume { ptr, i32 } %eh.lpad-body
}